target datalayout = "e-m:e-p270:32:32-p271:32:32-p272:64:64-i64:64-i128:128-f80:128-n8:16:32:64-S128"
target triple = "x86_64-pc-linux-gnu"

%struct.FFIOContext = type { %struct.AVIOContext, ptr, i32, i32, i64, i64, i64, i64, i32, i32, i32, i64 }
%struct.AVIOContext = type { ptr, ptr, i32, ptr, ptr, ptr, ptr, ptr, ptr, i64, i32, i32, i32, i32, i32, i64, ptr, ptr, ptr, ptr, i32, i32, ptr, ptr, ptr, i32, ptr, i64, i64 }

; Function Attrs: nounwind uwtable
define internal i32 @url_resetbuf(ptr noundef %0, i32 noundef %1) #0 {
  %3 = alloca ptr, align 8
  %4 = alloca i32, align 4
  store ptr %0, ptr %3, align 8, !tbaa !14
  store i32 %1, ptr %4, align 4, !tbaa !11
  %5 = load i32, ptr %4, align 4, !tbaa !11
  %6 = and i32 %5, 2
  %7 = icmp ne i32 %6, 0
  br i1 %7, label %8, label %21

8:                                                ; preds = %2
  %9 = load ptr, ptr %3, align 8, !tbaa !14
  %10 = getelementptr inbounds nuw %struct.AVIOContext, ptr %9, i32 0, i32 1
  %11 = load ptr, ptr %10, align 8, !tbaa !16
  %12 = load ptr, ptr %3, align 8, !tbaa !14
  %13 = getelementptr inbounds nuw %struct.AVIOContext, ptr %12, i32 0, i32 2
  %14 = load i32, ptr %13, align 8, !tbaa !20
  %15 = sext i32 %14 to i64
  %16 = getelementptr inbounds i8, ptr %11, i64 %15
  %17 = load ptr, ptr %3, align 8, !tbaa !14
  %18 = getelementptr inbounds nuw %struct.AVIOContext, ptr %17, i32 0, i32 4
  store ptr %16, ptr %18, align 8, !tbaa !38
  %19 = load ptr, ptr %3, align 8, !tbaa !14
  %20 = getelementptr inbounds nuw %struct.AVIOContext, ptr %19, i32 0, i32 12
  store i32 1, ptr %20, align 8, !tbaa !46
  br label %29

21:                                               ; preds = %2
  %22 = load ptr, ptr %3, align 8, !tbaa !14
  %23 = getelementptr inbounds nuw %struct.AVIOContext, ptr %22, i32 0, i32 1
  %24 = load ptr, ptr %23, align 8, !tbaa !16
  %25 = load ptr, ptr %3, align 8, !tbaa !14
  %26 = getelementptr inbounds nuw %struct.AVIOContext, ptr %25, i32 0, i32 4
  store ptr %24, ptr %26, align 8, !tbaa !38
  %27 = load ptr, ptr %3, align 8, !tbaa !14
  %28 = getelementptr inbounds nuw %struct.AVIOContext, ptr %27, i32 0, i32 12
  store i32 0, ptr %28, align 8, !tbaa !46
  br label %29

29:                                               ; preds = %21, %8
  ret i32 0
}

; Function Attrs: alwaysinline nounwind uwtable
define internal ptr @ffiocontext(ptr noundef %0) #5 {
  %2 = alloca ptr, align 8
  store ptr %0, ptr %2, align 8, !tbaa !14
  %3 = load ptr, ptr %2, align 8, !tbaa !14
  ret ptr %3
}

; Function Attrs: nounwind uwtable
define internal i32 @set_buf_size(ptr noundef %0, i32 noundef %1) #0 {
  %3 = alloca i32, align 4
  %4 = alloca ptr, align 8
  %5 = alloca i32, align 4
  %6 = alloca ptr, align 8
  %7 = alloca i32, align 4
  store ptr %0, ptr %4, align 8, !tbaa !14
  store i32 %1, ptr %5, align 4, !tbaa !11
  call void @llvm.lifetime.start.p0(i64 8, ptr %6) #12
  %8 = load i32, ptr %5, align 4, !tbaa !11
  %9 = sext i32 %8 to i64
  %10 = call noalias ptr @av_malloc(i64 noundef %9)
  store ptr %10, ptr %6, align 8, !tbaa !9
  %11 = load ptr, ptr %6, align 8, !tbaa !9
  %12 = icmp ne ptr %11, null
  br i1 %12, label %14, label %13

13:                                               ; preds = %2
  store i32 -12, ptr %3, align 4
  store i32 1, ptr %7, align 4
  br label %39

14:                                               ; preds = %2
  %15 = load ptr, ptr %4, align 8, !tbaa !14
  %16 = getelementptr inbounds nuw %struct.AVIOContext, ptr %15, i32 0, i32 1
  %17 = load ptr, ptr %16, align 8, !tbaa !16
  call void @av_free(ptr noundef %17)
  %18 = load ptr, ptr %6, align 8, !tbaa !9
  %19 = load ptr, ptr %4, align 8, !tbaa !14
  %20 = getelementptr inbounds nuw %struct.AVIOContext, ptr %19, i32 0, i32 1
  store ptr %18, ptr %20, align 8, !tbaa !16
  %21 = load i32, ptr %5, align 4, !tbaa !11
  %22 = load ptr, ptr %4, align 8, !tbaa !14
  %23 = getelementptr inbounds nuw %struct.AVIOContext, ptr %22, i32 0, i32 2
  store i32 %21, ptr %23, align 8, !tbaa !20
  %24 = load ptr, ptr %4, align 8, !tbaa !14
  %25 = call ptr @ffiocontext(ptr noundef %24)
  %26 = getelementptr inbounds nuw %struct.FFIOContext, ptr %25, i32 0, i32 10
  store i32 %21, ptr %26, align 8, !tbaa !21
  %27 = load ptr, ptr %6, align 8, !tbaa !9
  %28 = load ptr, ptr %4, align 8, !tbaa !14
  %29 = getelementptr inbounds nuw %struct.AVIOContext, ptr %28, i32 0, i32 26
  store ptr %27, ptr %29, align 8, !tbaa !24
  %30 = load ptr, ptr %4, align 8, !tbaa !14
  %31 = getelementptr inbounds nuw %struct.AVIOContext, ptr %30, i32 0, i32 3
  store ptr %27, ptr %31, align 8, !tbaa !23
  %32 = load ptr, ptr %4, align 8, !tbaa !14
  %33 = load ptr, ptr %4, align 8, !tbaa !14
  %34 = getelementptr inbounds nuw %struct.AVIOContext, ptr %33, i32 0, i32 12
  %35 = load i32, ptr %34, align 8, !tbaa !46
  %36 = icmp ne i32 %35, 0
  %37 = select i1 %36, i32 2, i32 1
  %38 = call i32 @url_resetbuf(ptr noundef %32, i32 noundef %37)
  store i32 0, ptr %3, align 4
  store i32 1, ptr %7, align 4
  br label %39

39:                                               ; preds = %14, %13
  call void @llvm.lifetime.end.p0(i64 8, ptr %6) #12
  %40 = load i32, ptr %3, align 4
  ret i32 %40
}

; Function Attrs: nounwind uwtable
define i32 @ffio_realloc_buf(ptr noundef %0, i32 noundef %1) #0 {
  %3 = alloca i32, align 4
  %4 = alloca ptr, align 8
  %5 = alloca i32, align 4
  %6 = alloca ptr, align 8
  %7 = alloca i32, align 4
  %8 = alloca i32, align 4
  store ptr %0, ptr %4, align 8, !tbaa !14
  store i32 %1, ptr %5, align 4, !tbaa !11
  call void @llvm.lifetime.start.p0(i64 8, ptr %6) #12
  call void @llvm.lifetime.start.p0(i64 4, ptr %7) #12
  %9 = load ptr, ptr %4, align 8, !tbaa !14
  %10 = getelementptr inbounds nuw %struct.AVIOContext, ptr %9, i32 0, i32 2
  %11 = load i32, ptr %10, align 8, !tbaa !20
  %12 = icmp ne i32 %11, 0
  br i1 %12, label %17, label %13

13:                                               ; preds = %2
  %14 = load ptr, ptr %4, align 8, !tbaa !14
  %15 = load i32, ptr %5, align 4, !tbaa !11
  %16 = call i32 @set_buf_size(ptr noundef %14, i32 noundef %15)
  store i32 %16, ptr %3, align 4
  store i32 1, ptr %8, align 4
  br label %150

17:                                               ; preds = %2
  %18 = load i32, ptr %5, align 4, !tbaa !11
  %19 = load ptr, ptr %4, align 8, !tbaa !14
  %20 = getelementptr inbounds nuw %struct.AVIOContext, ptr %19, i32 0, i32 2
  %21 = load i32, ptr %20, align 8, !tbaa !20
  %22 = icmp sle i32 %18, %21
  br i1 %22, label %23, label %24

23:                                               ; preds = %17
  store i32 0, ptr %3, align 4
  store i32 1, ptr %8, align 4
  br label %150

24:                                               ; preds = %17
  %25 = load i32, ptr %5, align 4, !tbaa !11
  %26 = sext i32 %25 to i64
  %27 = call noalias ptr @av_malloc(i64 noundef %26)
  store ptr %27, ptr %6, align 8, !tbaa !9
  %28 = load ptr, ptr %6, align 8, !tbaa !9
  %29 = icmp ne ptr %28, null
  br i1 %29, label %31, label %30

30:                                               ; preds = %24
  store i32 -12, ptr %3, align 4
  store i32 1, ptr %8, align 4
  br label %150

31:                                               ; preds = %24
  %32 = load ptr, ptr %4, align 8, !tbaa !14
  %33 = getelementptr inbounds nuw %struct.AVIOContext, ptr %32, i32 0, i32 12
  %34 = load i32, ptr %33, align 8, !tbaa !46
  %35 = icmp ne i32 %34, 0
  br i1 %35, label %36, label %46

36:                                               ; preds = %31
  %37 = load ptr, ptr %4, align 8, !tbaa !14
  %38 = getelementptr inbounds nuw %struct.AVIOContext, ptr %37, i32 0, i32 3
  %39 = load ptr, ptr %38, align 8, !tbaa !23
  %40 = load ptr, ptr %4, align 8, !tbaa !14
  %41 = getelementptr inbounds nuw %struct.AVIOContext, ptr %40, i32 0, i32 1
  %42 = load ptr, ptr %41, align 8, !tbaa !16
  %43 = ptrtoint ptr %39 to i64
  %44 = ptrtoint ptr %42 to i64
  %45 = sub i64 %43, %44
  br label %56

46:                                               ; preds = %31
  %47 = load ptr, ptr %4, align 8, !tbaa !14
  %48 = getelementptr inbounds nuw %struct.AVIOContext, ptr %47, i32 0, i32 4
  %49 = load ptr, ptr %48, align 8, !tbaa !38
  %50 = load ptr, ptr %4, align 8, !tbaa !14
  %51 = getelementptr inbounds nuw %struct.AVIOContext, ptr %50, i32 0, i32 3
  %52 = load ptr, ptr %51, align 8, !tbaa !23
  %53 = ptrtoint ptr %49 to i64
  %54 = ptrtoint ptr %52 to i64
  %55 = sub i64 %53, %54
  br label %56

56:                                               ; preds = %46, %36
  %57 = phi i64 [ %45, %36 ], [ %55, %46 ]
  %58 = trunc i64 %57 to i32
  store i32 %58, ptr %7, align 4, !tbaa !11
  %59 = load i32, ptr %7, align 4, !tbaa !11
  %60 = icmp sgt i32 %59, 0
  br i1 %60, label %61, label %79

61:                                               ; preds = %56
  %62 = load ptr, ptr %6, align 8, !tbaa !9
  %63 = load ptr, ptr %4, align 8, !tbaa !14
  %64 = getelementptr inbounds nuw %struct.AVIOContext, ptr %63, i32 0, i32 12
  %65 = load i32, ptr %64, align 8, !tbaa !46
  %66 = icmp ne i32 %65, 0
  br i1 %66, label %67, label %71

67:                                               ; preds = %61
  %68 = load ptr, ptr %4, align 8, !tbaa !14
  %69 = getelementptr inbounds nuw %struct.AVIOContext, ptr %68, i32 0, i32 1
  %70 = load ptr, ptr %69, align 8, !tbaa !16
  br label %75

71:                                               ; preds = %61
  %72 = load ptr, ptr %4, align 8, !tbaa !14
  %73 = getelementptr inbounds nuw %struct.AVIOContext, ptr %72, i32 0, i32 3
  %74 = load ptr, ptr %73, align 8, !tbaa !23
  br label %75

75:                                               ; preds = %71, %67
  %76 = phi ptr [ %70, %67 ], [ %74, %71 ]
  %77 = load i32, ptr %7, align 4, !tbaa !11
  %78 = sext i32 %77 to i64
  call void @llvm.memcpy.p0.p0.i64(ptr align 1 %62, ptr align 1 %76, i64 %78, i1 false)
  br label %79

79:                                               ; preds = %75, %56
  %80 = load ptr, ptr %4, align 8, !tbaa !14
  %81 = getelementptr inbounds nuw %struct.AVIOContext, ptr %80, i32 0, i32 1
  %82 = load ptr, ptr %81, align 8, !tbaa !16
  call void @av_free(ptr noundef %82)
  %83 = load ptr, ptr %6, align 8, !tbaa !9
  %84 = load ptr, ptr %4, align 8, !tbaa !14
  %85 = getelementptr inbounds nuw %struct.AVIOContext, ptr %84, i32 0, i32 1
  store ptr %83, ptr %85, align 8, !tbaa !16
  %86 = load i32, ptr %5, align 4, !tbaa !11
  %87 = load ptr, ptr %4, align 8, !tbaa !14
  %88 = call ptr @ffiocontext(ptr noundef %87)
  %89 = getelementptr inbounds nuw %struct.FFIOContext, ptr %88, i32 0, i32 10
  store i32 %86, ptr %89, align 8, !tbaa !21
  %90 = load i32, ptr %5, align 4, !tbaa !11
  %91 = load ptr, ptr %4, align 8, !tbaa !14
  %92 = getelementptr inbounds nuw %struct.AVIOContext, ptr %91, i32 0, i32 2
  store i32 %90, ptr %92, align 8, !tbaa !20
  %93 = load ptr, ptr %4, align 8, !tbaa !14
  %94 = getelementptr inbounds nuw %struct.AVIOContext, ptr %93, i32 0, i32 12
  %95 = load i32, ptr %94, align 8, !tbaa !46
  %96 = icmp ne i32 %95, 0
  br i1 %96, label %97, label %104

97:                                               ; preds = %79
  %98 = load ptr, ptr %4, align 8, !tbaa !14
  %99 = getelementptr inbounds nuw %struct.AVIOContext, ptr %98, i32 0, i32 1
  %100 = load ptr, ptr %99, align 8, !tbaa !16
  %101 = load i32, ptr %7, align 4, !tbaa !11
  %102 = sext i32 %101 to i64
  %103 = getelementptr inbounds i8, ptr %100, i64 %102
  br label %108

104:                                              ; preds = %79
  %105 = load ptr, ptr %4, align 8, !tbaa !14
  %106 = getelementptr inbounds nuw %struct.AVIOContext, ptr %105, i32 0, i32 1
  %107 = load ptr, ptr %106, align 8, !tbaa !16
  br label %108

108:                                              ; preds = %104, %97
  %109 = phi ptr [ %103, %97 ], [ %107, %104 ]
  %110 = load ptr, ptr %4, align 8, !tbaa !14
  %111 = getelementptr inbounds nuw %struct.AVIOContext, ptr %110, i32 0, i32 3
  store ptr %109, ptr %111, align 8, !tbaa !23
  %112 = load ptr, ptr %4, align 8, !tbaa !14
  %113 = getelementptr inbounds nuw %struct.AVIOContext, ptr %112, i32 0, i32 12
  %114 = load i32, ptr %113, align 8, !tbaa !46
  %115 = icmp ne i32 %114, 0
  br i1 %115, label %116, label %125

116:                                              ; preds = %108
  %117 = load ptr, ptr %4, align 8, !tbaa !14
  %118 = getelementptr inbounds nuw %struct.AVIOContext, ptr %117, i32 0, i32 1
  %119 = load ptr, ptr %118, align 8, !tbaa !16
  %120 = load i32, ptr %7, align 4, !tbaa !11
  %121 = sext i32 %120 to i64
  %122 = getelementptr inbounds i8, ptr %119, i64 %121
  %123 = load ptr, ptr %4, align 8, !tbaa !14
  %124 = getelementptr inbounds nuw %struct.AVIOContext, ptr %123, i32 0, i32 26
  store ptr %122, ptr %124, align 8, !tbaa !24
  br label %125

125:                                              ; preds = %116, %108
  %126 = load ptr, ptr %4, align 8, !tbaa !14
  %127 = getelementptr inbounds nuw %struct.AVIOContext, ptr %126, i32 0, i32 12
  %128 = load i32, ptr %127, align 8, !tbaa !46
  %129 = icmp ne i32 %128, 0
  br i1 %129, label %130, label %139

130:                                              ; preds = %125
  %131 = load ptr, ptr %4, align 8, !tbaa !14
  %132 = getelementptr inbounds nuw %struct.AVIOContext, ptr %131, i32 0, i32 1
  %133 = load ptr, ptr %132, align 8, !tbaa !16
  %134 = load ptr, ptr %4, align 8, !tbaa !14
  %135 = getelementptr inbounds nuw %struct.AVIOContext, ptr %134, i32 0, i32 2
  %136 = load i32, ptr %135, align 8, !tbaa !20
  %137 = sext i32 %136 to i64
  %138 = getelementptr inbounds i8, ptr %133, i64 %137
  br label %146

139:                                              ; preds = %125
  %140 = load ptr, ptr %4, align 8, !tbaa !14
  %141 = getelementptr inbounds nuw %struct.AVIOContext, ptr %140, i32 0, i32 3
  %142 = load ptr, ptr %141, align 8, !tbaa !23
  %143 = load i32, ptr %7, align 4, !tbaa !11
  %144 = sext i32 %143 to i64
  %145 = getelementptr inbounds i8, ptr %142, i64 %144
  br label %146

146:                                              ; preds = %139, %130
  %147 = phi ptr [ %138, %130 ], [ %145, %139 ]
  %148 = load ptr, ptr %4, align 8, !tbaa !14
  %149 = getelementptr inbounds nuw %struct.AVIOContext, ptr %148, i32 0, i32 4
  store ptr %147, ptr %149, align 8, !tbaa !38
  store i32 0, ptr %3, align 4
  store i32 1, ptr %8, align 4
  br label %150

150:                                              ; preds = %146, %30, %23, %13
  call void @llvm.lifetime.end.p0(i64 4, ptr %7) #12
  call void @llvm.lifetime.end.p0(i64 8, ptr %6) #12
  %151 = load i32, ptr %3, align 4
  ret i32 %151
}