; Function Attrs: nounwind uwtable
define range(i32 -12, 1) i32 @ffio_realloc_buf(ptr noundef captures(none) %0, i32 noundef %1) local_unnamed_addr #3 {
  %3 = getelementptr inbounds nuw i8, ptr %0, i64 16
  %4 = load i32, ptr %3, align 8, !tbaa !13
  %.not = icmp eq i32 %4, 0
  br i1 %.not, label %5, label %16

5:                                                ; preds = %2
  %6 = sext i32 %1 to i64
  %7 = tail call noalias ptr @av_malloc(i64 noundef %6) #14
  %.not.i = icmp eq ptr %7, null
  br i1 %.not.i, label %set_buf_size.exit, label %url_resetbuf.exit.i

url_resetbuf.exit.i:                              ; preds = %5
  %8 = getelementptr inbounds nuw i8, ptr %0, i64 8
  %9 = load ptr, ptr %8, align 8, !tbaa !4
  tail call void @av_free(ptr noundef %9) #14
  store ptr %7, ptr %8, align 8, !tbaa !4
  store i32 %1, ptr %3, align 8, !tbaa !13
  %10 = getelementptr inbounds nuw i8, ptr %0, i64 264
  store i32 %1, ptr %10, align 8, !tbaa !14
  %11 = getelementptr inbounds nuw i8, ptr %0, i64 184
  store ptr %7, ptr %11, align 8, !tbaa !17
  %12 = getelementptr inbounds nuw i8, ptr %0, i64 24
  store ptr %7, ptr %12, align 8, !tbaa !16
  %13 = getelementptr inbounds nuw i8, ptr %0, i64 88
  %14 = load i32, ptr %13, align 8, !tbaa !20
  %.not14.i = icmp ne i32 %14, 0
  %spec.select.idx.i = select i1 %.not14.i, i64 %6, i64 0
  %spec.select.i = getelementptr inbounds i8, ptr %7, i64 %spec.select.idx.i
  %spec.select15.i = zext i1 %.not14.i to i32
  %15 = getelementptr inbounds nuw i8, ptr %0, i64 32
  store ptr %spec.select.i, ptr %15, align 8, !tbaa !19
  store i32 %spec.select15.i, ptr %13, align 8, !tbaa !20
  br label %set_buf_size.exit

16:                                               ; preds = %2
  %.not44 = icmp sgt i32 %1, %4
  br i1 %.not44, label %17, label %set_buf_size.exit

17:                                               ; preds = %16
  %18 = sext i32 %1 to i64
  %19 = tail call noalias ptr @av_malloc(i64 noundef %18) #14
  %.not45 = icmp eq ptr %19, null
  br i1 %.not45, label %set_buf_size.exit, label %20

20:                                               ; preds = %17
  %21 = getelementptr inbounds nuw i8, ptr %0, i64 88
  %22 = load i32, ptr %21, align 8, !tbaa !20
  %.not46 = icmp eq i32 %22, 0
  %. = select i1 %.not46, i64 32, i64 24
  %.62 = select i1 %.not46, i64 24, i64 8
  %23 = getelementptr inbounds nuw i8, ptr %0, i64 %.
  %24 = load ptr, ptr %23, align 8, !tbaa !54
  %25 = getelementptr inbounds nuw i8, ptr %0, i64 %.62
  %26 = load ptr, ptr %25, align 8, !tbaa !54
  %27 = ptrtoint ptr %24 to i64
  %28 = ptrtoint ptr %26 to i64
  %29 = sub i64 %27, %28
  %30 = trunc i64 %29 to i32
  %31 = icmp sgt i32 %30, 0
  br i1 %31, label %32, label %35

32:                                               ; preds = %20
  %.in.v = select i1 %.not46, i64 24, i64 8
  %.in = getelementptr inbounds nuw i8, ptr %0, i64 %.in.v
  %33 = load ptr, ptr %.in, align 8, !tbaa !54
  %34 = and i64 %29, 2147483647
  tail call void @llvm.memcpy.p0.p0.i64(ptr nonnull align 1 %19, ptr align 1 %33, i64 %34, i1 false)
  br label %35

35:                                               ; preds = %32, %20
  %36 = getelementptr inbounds nuw i8, ptr %0, i64 8
  %37 = load ptr, ptr %36, align 8, !tbaa !4
  tail call void @av_free(ptr noundef %37) #14
  store ptr %19, ptr %36, align 8, !tbaa !4
  %38 = getelementptr inbounds nuw i8, ptr %0, i64 264
  store i32 %1, ptr %38, align 8, !tbaa !14
  store i32 %1, ptr %3, align 8, !tbaa !13
  %39 = load i32, ptr %21, align 8, !tbaa !20
  %.not48 = icmp eq i32 %39, 0
  %sext52 = shl i64 %29, 32
  %40 = ashr exact i64 %sext52, 32
  br i1 %.not48, label %44, label %41

41:                                               ; preds = %35
  %42 = getelementptr inbounds i8, ptr %19, i64 %40
  %43 = getelementptr inbounds nuw i8, ptr %0, i64 184
  store ptr %42, ptr %43, align 8, !tbaa !17
  br label %44

44:                                               ; preds = %35, %41
  %.sink = phi ptr [ %42, %41 ], [ %19, %35 ]
  %.pn = phi i64 [ %18, %41 ], [ %40, %35 ]
  %45 = getelementptr inbounds nuw i8, ptr %0, i64 24
  store ptr %.sink, ptr %45, align 8, !tbaa !16
  %46 = getelementptr inbounds i8, ptr %19, i64 %.pn
  %47 = getelementptr inbounds nuw i8, ptr %0, i64 32
  store ptr %46, ptr %47, align 8, !tbaa !19
  br label %set_buf_size.exit

set_buf_size.exit:                                ; preds = %url_resetbuf.exit.i, %5, %17, %16, %44
  %.0 = phi i32 [ 0, %44 ], [ 0, %16 ], [ -12, %17 ], [ 0, %url_resetbuf.exit.i ], [ -12, %5 ]
  ret i32 %.0
}